(dp0
S'article_link'
p1
S'http://diveintomark.org/archives/2009/03/27/dive-into-history-2009-edition'
p2
sS'internal_id'
p3
S'\xde\xd5\xb4\xf8'
p4
sS'published_date'
p5
ctime
struct_time
p6
((I2009
I3
I27
I22
I20
I42
I4
I86
I-1
tp7
(dp8
tp9
Rp10
s.